; Function Attrs: mustprogress nofree norecurse nosync nounwind willreturn memory(read, inaccessiblemem: none) uwtable
define dso_local float @stbtt_ScaleForMappingEmToPixels(ptr noundef readonly captures(none) %0, float noundef %1) local_unnamed_addr #2 {
  %3 = getelementptr inbounds nuw i8, ptr %0, i64 8
  %4 = load ptr, ptr %3, align 8
  %5 = getelementptr inbounds nuw i8, ptr %0, i64 28
  %6 = load i32, ptr %5, align 4
  %7 = sext i32 %6 to i64
  %8 = getelementptr inbounds i8, ptr %4, i64 %7
  %9 = getelementptr inbounds nuw i8, ptr %8, i64 18
  %.val = load i8, ptr %9, align 1
  %10 = getelementptr i8, ptr %8, i64 19
  %.val3 = load i8, ptr %10, align 1
  %11 = zext i8 %.val to i16
  %12 = shl nuw i16 %11, 8
  %13 = zext i8 %.val3 to i16
  %14 = or disjoint i16 %12, %13
  %15 = uitofp i16 %14 to float
  %16 = fdiv float %1, %15
  ret float %16
}